target datalayout = "e-m:e-p270:32:32-p271:32:32-p272:64:64-i64:64-i128:128-f80:128-n8:16:32:64-S128"
target triple = "x86_64-pc-linux-gnu"

@.str.29 = private unnamed_addr constant [22 x i8] c"core.logallrefupdates\00", align 1
@.str.30 = private unnamed_addr constant [7 x i8] c"always\00", align 1

; Function Attrs: nounwind uwtable
define dso_local i32 @repo_settings_get_log_all_ref_updates(ptr noundef %0) #0 {
  %2 = alloca i32, align 4
  %3 = alloca ptr, align 8
  %4 = alloca ptr, align 8
  %5 = alloca i32, align 4
  store ptr %0, ptr %3, align 8, !tbaa !4
  call void @llvm.lifetime.start.p0(i64 8, ptr %4) #8
  %6 = load ptr, ptr %3, align 8, !tbaa !4
  %7 = call i32 @repo_config_get_string_tmp(ptr noundef %6, ptr noundef @.str.29, ptr noundef %4)
  %8 = icmp ne i32 %7, 0
  br i1 %8, label %23, label %9

9:                                                ; preds = %1
  %10 = load ptr, ptr %4, align 8, !tbaa !39
  %11 = icmp ne ptr %10, null
  br i1 %11, label %12, label %17

12:                                               ; preds = %9
  %13 = load ptr, ptr %4, align 8, !tbaa !39
  %14 = call i32 @strcasecmp(ptr noundef %13, ptr noundef @.str.30) #10
  %15 = icmp ne i32 %14, 0
  br i1 %15, label %17, label %16

16:                                               ; preds = %12
  store i32 2, ptr %2, align 4
  store i32 1, ptr %5, align 4
  br label %24

17:                                               ; preds = %12, %9
  %18 = load ptr, ptr %4, align 8, !tbaa !39
  %19 = call i32 @git_config_bool(ptr noundef @.str.29, ptr noundef %18)
  %20 = icmp ne i32 %19, 0
  br i1 %20, label %21, label %22

21:                                               ; preds = %17
  store i32 1, ptr %2, align 4
  store i32 1, ptr %5, align 4
  br label %24

22:                                               ; preds = %17
  store i32 0, ptr %2, align 4
  store i32 1, ptr %5, align 4
  br label %24

23:                                               ; preds = %1
  store i32 -1, ptr %2, align 4
  store i32 1, ptr %5, align 4
  br label %24

24:                                               ; preds = %23, %22, %21, %16
  call void @llvm.lifetime.end.p0(i64 8, ptr %4) #8
  %25 = load i32, ptr %2, align 4
  ret i32 %25
}