; Function Attrs: nounwind uwtable
define dso_local range(i32 -1, 3) i32 @repo_settings_get_log_all_ref_updates(ptr noundef %0) local_unnamed_addr #0 {
  %2 = alloca ptr, align 8
  call void @llvm.lifetime.start.p0(i64 8, ptr nonnull %2) #7
  %3 = call i32 @repo_config_get_string_tmp(ptr noundef %0, ptr noundef nonnull @.str.29, ptr noundef nonnull %2) #7
  %.not = icmp eq i32 %3, 0
  br i1 %.not, label %4, label %10

4:                                                ; preds = %1
  %5 = load ptr, ptr %2, align 8, !tbaa !37
  %.not2 = icmp eq ptr %5, null
  br i1 %.not2, label %8, label %6

6:                                                ; preds = %4
  %7 = call i32 @strcasecmp(ptr noundef nonnull %5, ptr noundef nonnull @.str.30) #9
  %.not3 = icmp eq i32 %7, 0
  br i1 %.not3, label %10, label %8

8:                                                ; preds = %6, %4
  %9 = call i32 @git_config_bool(ptr noundef nonnull @.str.29, ptr noundef %5) #7
  %.not4 = icmp ne i32 %9, 0
  %. = zext i1 %.not4 to i32
  br label %10

10:                                               ; preds = %1, %8, %6
  %.0 = phi i32 [ 2, %6 ], [ %., %8 ], [ -1, %1 ]
  call void @llvm.lifetime.end.p0(i64 8, ptr nonnull %2) #7
  ret i32 %.0
}